; Function Attrs: null_pointer_is_valid sspstrong uwtable
define internal range(i32 -268435456, 268435456) i32 @dissect_UplinkInformationExchangeFailure_PDU(ptr noundef %0, ptr noundef %1, ptr noundef %2, ptr readnone captures(none) %3) #0 {
  %5 = alloca %struct._asn1_ctx_t, align 8
  call void @llvm.lifetime.start.p0(i64 208, ptr nonnull %5) #4
  call void @asn1_ctx_init(ptr noundef nonnull %5, i32 noundef 1, i1 noundef zeroext true, ptr noundef %1)
  %6 = load i32, ptr @hf_ranap_UplinkInformationExchangeFailure_PDU, align 4
  %7 = getelementptr inbounds nuw i8, ptr %5, i64 16
  %8 = load ptr, ptr %7, align 8
  %9 = getelementptr inbounds nuw i8, ptr %8, i64 8
  %10 = load ptr, ptr %9, align 8
  call void @col_set_str(ptr noundef %10, i32 noundef 25, ptr noundef nonnull @.str.2563)
  %11 = load i32, ptr @ett_ranap_UplinkInformationExchangeFailure, align 4
  %12 = call i32 @dissect_per_sequence(ptr noundef %0, i32 noundef 0, ptr noundef nonnull %5, ptr noundef %2, i32 noundef %6, i32 noundef %11, ptr noundef nonnull @UplinkInformationExchangeFailure_sequence)
  %13 = add i32 %12, 7
  %14 = ashr i32 %13, 3
  call void @llvm.lifetime.end.p0(i64 208, ptr nonnull %5) #4
  ret i32 %14
}